target datalayout = "e-m:e-p270:32:32-p271:32:32-p272:64:64-i64:64-i128:128-f80:128-n8:16:32:64-S128"
target triple = "x86_64-pc-linux-gnu"

%struct._object = type { %union.anon, ptr }
%union.anon = type { i64 }
%struct.anon = type { i32, i32 }

@_Py_open_cloexec_works = hidden global i32 -1, align 4
@_Py_NoneStruct = external global %struct._object, align 8
@PyExc_OSError = external global ptr, align 8
@.str.1 = private unnamed_addr constant [5 x i8] c"open\00", align 1
@.str.23 = private unnamed_addr constant [4 x i8] c"OOi\00", align 1

; Function Attrs: alwaysinline nounwind uwtable
define internal i32 @_Py_IsImmortal(ptr noundef %0) #6 {
  %2 = alloca ptr, align 8
  store ptr %0, ptr %2, align 8, !tbaa !178
  %3 = load ptr, ptr %2, align 8, !tbaa !178
  %4 = getelementptr inbounds nuw %struct._object, ptr %3, i32 0, i32 0
  %5 = getelementptr inbounds nuw %struct.anon, ptr %4, i32 0, i32 0
  %6 = load i32, ptr %5, align 8, !tbaa !181
  %7 = icmp slt i32 %6, 0
  %8 = zext i1 %7 to i32
  ret i32 %8
}

; Function Attrs: alwaysinline nounwind uwtable
define internal void @Py_DECREF(ptr noundef %0) #6 {
  %2 = alloca ptr, align 8
  store ptr %0, ptr %2, align 8, !tbaa !178
  %3 = load ptr, ptr %2, align 8, !tbaa !178
  %4 = call i32 @_Py_IsImmortal(ptr noundef %3)
  %5 = icmp ne i32 %4, 0
  br i1 %5, label %6, label %7

6:                                                ; preds = %1
  br label %16

7:                                                ; preds = %1
  %8 = load ptr, ptr %2, align 8, !tbaa !178
  %9 = getelementptr inbounds nuw %struct._object, ptr %8, i32 0, i32 0
  %10 = getelementptr inbounds nuw %struct.anon, ptr %9, i32 0, i32 0
  %11 = load i32, ptr %10, align 8, !tbaa !181
  %12 = add i32 %11, -1
  store i32 %12, ptr %10, align 8, !tbaa !181
  %13 = icmp eq i32 %12, 0
  br i1 %13, label %14, label %16

14:                                               ; preds = %7
  %15 = load ptr, ptr %2, align 8, !tbaa !178
  call void @_Py_Dealloc(ptr noundef %15)
  br label %16

16:                                               ; preds = %6, %14, %7
  ret void
}

; Function Attrs: nounwind uwtable
define internal i32 @_Py_open_impl(ptr noundef %0, i32 noundef %1, i32 noundef %2) #0 {
  %4 = alloca i32, align 4
  %5 = alloca ptr, align 8
  %6 = alloca i32, align 4
  %7 = alloca i32, align 4
  %8 = alloca i32, align 4
  %9 = alloca i32, align 4
  %10 = alloca ptr, align 8
  %11 = alloca ptr, align 8
  %12 = alloca i32, align 4
  %13 = alloca ptr, align 8
  store ptr %0, ptr %5, align 8, !tbaa !180
  store i32 %1, ptr %6, align 4, !tbaa !4
  store i32 %2, ptr %7, align 4, !tbaa !4
  call void @llvm.lifetime.start.p0(i64 4, ptr %8) #10
  call void @llvm.lifetime.start.p0(i64 4, ptr %9) #10
  store i32 0, ptr %9, align 4, !tbaa !4
  call void @llvm.lifetime.start.p0(i64 8, ptr %10) #10
  store ptr @_Py_open_cloexec_works, ptr %10, align 8, !tbaa !177
  %14 = load i32, ptr %6, align 4, !tbaa !4
  %15 = or i32 %14, 524288
  store i32 %15, ptr %6, align 4, !tbaa !4
  %16 = load i32, ptr %7, align 4, !tbaa !4
  %17 = icmp ne i32 %16, 0
  br i1 %17, label %18, label %69

18:                                               ; preds = %3
  call void @llvm.lifetime.start.p0(i64 8, ptr %11) #10
  %19 = load ptr, ptr %5, align 8, !tbaa !180
  %20 = call ptr @PyUnicode_DecodeFSDefault(ptr noundef %19)
  store ptr %20, ptr %11, align 8, !tbaa !178
  %21 = load ptr, ptr %11, align 8, !tbaa !178
  %22 = icmp eq ptr %21, null
  br i1 %22, label %23, label %24

23:                                               ; preds = %18
  store i32 -1, ptr %4, align 4
  store i32 1, ptr %12, align 4
  br label %66

24:                                               ; preds = %18
  %25 = load ptr, ptr %11, align 8, !tbaa !178
  %26 = load i32, ptr %6, align 4, !tbaa !4
  %27 = call i32 (ptr, ptr, ...) @PySys_Audit(ptr noundef @.str.1, ptr noundef @.str.23, ptr noundef %25, ptr noundef @_Py_NoneStruct, i32 noundef %26)
  %28 = icmp slt i32 %27, 0
  br i1 %28, label %29, label %31

29:                                               ; preds = %24
  %30 = load ptr, ptr %11, align 8, !tbaa !178
  call void @Py_DECREF(ptr noundef %30)
  store i32 -1, ptr %4, align 4
  store i32 1, ptr %12, align 4
  br label %66

31:                                               ; preds = %24
  br label %32

32:                                               ; preds = %49, %31
  call void @llvm.lifetime.start.p0(i64 8, ptr %13) #10
  %33 = call ptr @PyEval_SaveThread()
  store ptr %33, ptr %13, align 8, !tbaa !8
  %34 = load ptr, ptr %5, align 8, !tbaa !180
  %35 = load i32, ptr %6, align 4, !tbaa !4
  %36 = call i32 (ptr, i32, ...) @open64(ptr noundef %34, i32 noundef %35)
  store i32 %36, ptr %8, align 4, !tbaa !4
  %37 = load ptr, ptr %13, align 8, !tbaa !8
  call void @PyEval_RestoreThread(ptr noundef %37)
  call void @llvm.lifetime.end.p0(i64 8, ptr %13) #10
  br label %38

38:                                               ; preds = %32
  %39 = load i32, ptr %8, align 4, !tbaa !4
  %40 = icmp slt i32 %39, 0
  br i1 %40, label %41, label %49

41:                                               ; preds = %38
  %42 = call ptr @__errno_location() #12
  %43 = load i32, ptr %42, align 4, !tbaa !4
  %44 = icmp eq i32 %43, 4
  br i1 %44, label %45, label %49

45:                                               ; preds = %41
  %46 = call i32 @PyErr_CheckSignals()
  store i32 %46, ptr %9, align 4, !tbaa !4
  %47 = icmp ne i32 %46, 0
  %48 = xor i1 %47, true
  br label %49

49:                                               ; preds = %45, %41, %38
  %50 = phi i1 [ false, %41 ], [ false, %38 ], [ %48, %45 ]
  br i1 %50, label %32, label %51, !llvm.loop !195

51:                                               ; preds = %49
  %52 = load i32, ptr %9, align 4, !tbaa !4
  %53 = icmp ne i32 %52, 0
  br i1 %53, label %54, label %56

54:                                               ; preds = %51
  %55 = load ptr, ptr %11, align 8, !tbaa !178
  call void @Py_DECREF(ptr noundef %55)
  store i32 -1, ptr %4, align 4
  store i32 1, ptr %12, align 4
  br label %66

56:                                               ; preds = %51
  %57 = load i32, ptr %8, align 4, !tbaa !4
  %58 = icmp slt i32 %57, 0
  br i1 %58, label %59, label %64

59:                                               ; preds = %56
  %60 = load ptr, ptr @PyExc_OSError, align 8, !tbaa !178
  %61 = load ptr, ptr %11, align 8, !tbaa !178
  %62 = call ptr @PyErr_SetFromErrnoWithFilenameObjects(ptr noundef %60, ptr noundef %61, ptr noundef null)
  %63 = load ptr, ptr %11, align 8, !tbaa !178
  call void @Py_DECREF(ptr noundef %63)
  store i32 -1, ptr %4, align 4
  store i32 1, ptr %12, align 4
  br label %66

64:                                               ; preds = %56
  %65 = load ptr, ptr %11, align 8, !tbaa !178
  call void @Py_DECREF(ptr noundef %65)
  store i32 0, ptr %12, align 4
  br label %66

66:                                               ; preds = %64, %59, %54, %29, %23
  call void @llvm.lifetime.end.p0(i64 8, ptr %11) #10
  %67 = load i32, ptr %12, align 4
  switch i32 %67, label %88 [
    i32 0, label %68
  ]

68:                                               ; preds = %66
  br label %77

69:                                               ; preds = %3
  %70 = load ptr, ptr %5, align 8, !tbaa !180
  %71 = load i32, ptr %6, align 4, !tbaa !4
  %72 = call i32 (ptr, i32, ...) @open64(ptr noundef %70, i32 noundef %71)
  store i32 %72, ptr %8, align 4, !tbaa !4
  %73 = load i32, ptr %8, align 4, !tbaa !4
  %74 = icmp slt i32 %73, 0
  br i1 %74, label %75, label %76

75:                                               ; preds = %69
  store i32 -1, ptr %4, align 4
  store i32 1, ptr %12, align 4
  br label %88

76:                                               ; preds = %69
  br label %77

77:                                               ; preds = %76, %68
  %78 = load i32, ptr %8, align 4, !tbaa !4
  %79 = load i32, ptr %7, align 4, !tbaa !4
  %80 = load ptr, ptr %10, align 8, !tbaa !177
  %81 = call i32 @set_inheritable(i32 noundef %78, i32 noundef 0, i32 noundef %79, ptr noundef %80)
  %82 = icmp slt i32 %81, 0
  br i1 %82, label %83, label %86

83:                                               ; preds = %77
  %84 = load i32, ptr %8, align 4, !tbaa !4
  %85 = call i32 @close(i32 noundef %84)
  store i32 -1, ptr %4, align 4
  store i32 1, ptr %12, align 4
  br label %88

86:                                               ; preds = %77
  %87 = load i32, ptr %8, align 4, !tbaa !4
  store i32 %87, ptr %4, align 4
  store i32 1, ptr %12, align 4
  br label %88

88:                                               ; preds = %86, %83, %75, %66
  call void @llvm.lifetime.end.p0(i64 8, ptr %10) #10
  call void @llvm.lifetime.end.p0(i64 4, ptr %9) #10
  call void @llvm.lifetime.end.p0(i64 4, ptr %8) #10
  %89 = load i32, ptr %4, align 4
  ret i32 %89
}