; Function Attrs: nounwind uwtable
define internal fastcc range(i32 -1, -2147483648) i32 @_Py_open_impl(ptr noundef %0, i32 noundef %1, i32 noundef range(i32 0, 2) %2) unnamed_addr #0 {
  %4 = or i32 %1, 524288
  %.not = icmp eq i32 %2, 0
  br i1 %.not, label %46, label %5

5:                                                ; preds = %3
  %6 = tail call ptr @PyUnicode_DecodeFSDefault(ptr noundef %0) #17
  %7 = icmp eq ptr %6, null
  br i1 %7, label %Py_DECREF.exit43.thread, label %8

8:                                                ; preds = %5
  %9 = tail call i32 (ptr, ptr, ...) @PySys_Audit(ptr noundef nonnull @.str.1, ptr noundef nonnull @.str.23, ptr noundef nonnull %6, ptr noundef nonnull @_Py_NoneStruct, i32 noundef %4) #17
  %10 = icmp slt i32 %9, 0
  br i1 %10, label %11, label %.preheader

11:                                               ; preds = %8
  %12 = load i32, ptr %6, align 8, !tbaa !175
  %.not.i42 = icmp sgt i32 %12, -1
  br i1 %.not.i42, label %13, label %Py_DECREF.exit43.thread

13:                                               ; preds = %11
  %14 = add nsw i32 %12, -1
  store i32 %14, ptr %6, align 8, !tbaa !175
  %15 = icmp eq i32 %14, 0
  br i1 %15, label %16, label %Py_DECREF.exit43.thread

16:                                               ; preds = %13
  tail call void @_Py_Dealloc(ptr noundef nonnull %6) #17
  br label %Py_DECREF.exit43.thread

.preheader:                                       ; preds = %8, %24
  %17 = tail call ptr @PyEval_SaveThread() #17
  %18 = tail call i32 (ptr, i32, ...) @open64(ptr noundef %0, i32 noundef %4) #17
  tail call void @PyEval_RestoreThread(ptr noundef %17) #17
  %19 = icmp slt i32 %18, 0
  br i1 %19, label %20, label %39

20:                                               ; preds = %.preheader
  %21 = tail call ptr @__errno_location() #19
  %22 = load i32, ptr %21, align 4, !tbaa !180
  %23 = icmp eq i32 %22, 4
  br i1 %23, label %24, label %31

24:                                               ; preds = %20
  %25 = tail call i32 @PyErr_CheckSignals() #17
  %.not36 = icmp eq i32 %25, 0
  br i1 %.not36, label %.preheader, label %.critedge, !llvm.loop !189

.critedge:                                        ; preds = %24
  %26 = load i32, ptr %6, align 8, !tbaa !175
  %.not.i40 = icmp sgt i32 %26, -1
  br i1 %.not.i40, label %27, label %Py_DECREF.exit43.thread

27:                                               ; preds = %.critedge
  %28 = add nsw i32 %26, -1
  store i32 %28, ptr %6, align 8, !tbaa !175
  %29 = icmp eq i32 %28, 0
  br i1 %29, label %30, label %Py_DECREF.exit43.thread

30:                                               ; preds = %27
  tail call void @_Py_Dealloc(ptr noundef nonnull %6) #17
  br label %Py_DECREF.exit43.thread

31:                                               ; preds = %20
  %32 = load ptr, ptr @PyExc_OSError, align 8, !tbaa !188
  %33 = tail call ptr @PyErr_SetFromErrnoWithFilenameObjects(ptr noundef %32, ptr noundef nonnull %6, ptr noundef null) #17
  %34 = load i32, ptr %6, align 8, !tbaa !175
  %.not.i38 = icmp sgt i32 %34, -1
  br i1 %.not.i38, label %35, label %Py_DECREF.exit43.thread

35:                                               ; preds = %31
  %36 = add nsw i32 %34, -1
  store i32 %36, ptr %6, align 8, !tbaa !175
  %37 = icmp eq i32 %36, 0
  br i1 %37, label %38, label %Py_DECREF.exit43.thread

38:                                               ; preds = %35
  tail call void @_Py_Dealloc(ptr noundef nonnull %6) #17
  br label %Py_DECREF.exit43.thread

39:                                               ; preds = %.preheader
  %40 = load i32, ptr %6, align 8, !tbaa !175
  %.not.i = icmp sgt i32 %40, -1
  br i1 %.not.i, label %41, label %.split

41:                                               ; preds = %39
  %42 = add nsw i32 %40, -1
  store i32 %42, ptr %6, align 8, !tbaa !175
  %43 = icmp eq i32 %42, 0
  br i1 %43, label %44, label %.split

44:                                               ; preds = %41
  tail call void @_Py_Dealloc(ptr noundef nonnull %6) #17
  br label %.split

.split:                                           ; preds = %39, %41, %44
  %45 = tail call fastcc i32 @set_inheritable(i32 noundef %18, i32 noundef 0, i32 noundef 1, ptr noundef nonnull @_Py_open_cloexec_works)
  br label %set_inheritable.exit

46:                                               ; preds = %3
  %47 = tail call i32 (ptr, i32, ...) @open64(ptr noundef %0, i32 noundef %4) #17
  %48 = icmp slt i32 %47, 0
  br i1 %48, label %Py_DECREF.exit43.thread, label %.split31

.split31:                                         ; preds = %46
  %49 = load atomic i32, ptr @_Py_open_cloexec_works monotonic, align 4
  %50 = icmp eq i32 %49, -1
  br i1 %50, label %51, label %55

51:                                               ; preds = %.split31
  %52 = tail call i32 (i32, i32, ...) @fcntl64(i32 noundef %47, i32 noundef 1, i32 noundef 0) #17
  %53 = icmp eq i32 %52, -1
  br i1 %53, label %set_inheritable.exit.thread, label %get_inheritable.exit.i

get_inheritable.exit.i:                           ; preds = %51
  %54 = and i32 %52, 1
  store atomic i32 %54, ptr @_Py_open_cloexec_works monotonic, align 4
  br label %55

55:                                               ; preds = %get_inheritable.exit.i, %.split31
  %56 = load atomic i32, ptr @_Py_open_cloexec_works monotonic, align 4
  %.not37.i = icmp eq i32 %56, 0
  br i1 %.not37.i, label %57, label %Py_DECREF.exit43.thread

57:                                               ; preds = %55
  %58 = tail call i32 (i32, i32, ...) @fcntl64(i32 noundef %47, i32 noundef 1) #17
  %59 = icmp slt i32 %58, 0
  br i1 %59, label %set_inheritable.exit.thread, label %60

60:                                               ; preds = %57
  %61 = or i32 %58, 1
  %62 = icmp eq i32 %61, %58
  br i1 %62, label %Py_DECREF.exit43.thread, label %63

63:                                               ; preds = %60
  %64 = tail call i32 (i32, i32, ...) @fcntl64(i32 noundef %47, i32 noundef 2, i32 noundef %61) #17
  %.lobit = ashr i32 %64, 31
  br label %set_inheritable.exit

set_inheritable.exit:                             ; preds = %63, %.split
  %phi.call = phi i32 [ %45, %.split ], [ %.lobit, %63 ]
  %.128 = phi i32 [ %18, %.split ], [ %47, %63 ]
  %65 = icmp slt i32 %phi.call, 0
  br i1 %65, label %set_inheritable.exit.thread, label %Py_DECREF.exit43.thread

set_inheritable.exit.thread:                      ; preds = %51, %57, %set_inheritable.exit
  %.12853 = phi i32 [ %.128, %set_inheritable.exit ], [ %47, %57 ], [ %47, %51 ]
  %66 = tail call i32 @close(i32 noundef %.12853) #17
  br label %Py_DECREF.exit43.thread

Py_DECREF.exit43.thread:                          ; preds = %60, %55, %38, %35, %31, %30, %27, %.critedge, %16, %13, %11, %5, %set_inheritable.exit, %46, %set_inheritable.exit.thread
  %.1 = phi i32 [ -1, %set_inheritable.exit.thread ], [ -1, %46 ], [ %.128, %set_inheritable.exit ], [ -1, %5 ], [ -1, %11 ], [ -1, %13 ], [ -1, %16 ], [ -1, %.critedge ], [ -1, %27 ], [ -1, %30 ], [ -1, %31 ], [ -1, %35 ], [ -1, %38 ], [ %47, %55 ], [ %47, %60 ]
  ret i32 %.1
}